target datalayout = "e-m:e-p270:32:32-p271:32:32-p272:64:64-i64:64-i128:128-f80:128-n8:16:32:64-S128"
target triple = "x86_64-pc-linux-gnu"

%struct.AVBPrint = type { ptr, i32, i32, i32, [1 x i8], [1000 x i8] }
%struct.AVPacket = type { ptr, i64, i64, ptr, i32, i32, i32, ptr, i32, i64, i64, ptr, ptr, %struct.AVRational }
%struct.AVRational = type { i32, i32 }
%struct.AVCodecContext = type { ptr, i32, i32, ptr, i32, i32, ptr, ptr, ptr, i64, i32, i32, ptr, i32, %struct.AVRational, %struct.AVRational, %struct.AVRational, i32, i32, i32, i32, i32, %struct.AVRational, i32, i32, i32, i32, i32, i32, i32, i32, i32, i32, i32, ptr, ptr, i32, float, float, float, float, float, float, float, float, float, i32, i32, i32, i32, i32, i32, i32, i32, i32, i32, i32, i32, ptr, ptr, ptr, i32, i32, i32, i32, i32, i32, i32, i32, i32, i32, %struct.AVChannelLayout, i32, i32, i32, i32, i32, i32, i32, i32, ptr, i32, i32, i32, float, float, i32, i32, i32, i32, i32, ptr, i64, i64, float, float, i32, i32, ptr, ptr, i32, i32, i32, i32, i32, ptr, ptr, ptr, ptr, i32, i32, [8 x i64], i32, i32, i32, i32, i32, i32, i32, ptr, ptr, i32, i32, i32, i32, i32, i32, i32, i32, i32, i32, ptr, ptr, i32, i32, ptr, ptr, ptr, ptr, i32, i32, i64, i32, i32, i64, ptr, i64, ptr, i32, ptr, i32 }
%struct.AVChannelLayout = type { i32, i32, %union.anon.1, ptr }
%union.anon.1 = type { i64 }
%struct.TextContext = type { ptr, ptr, i32, i32 }
%struct.AVSubtitle = type { i16, i32, i32, i32, ptr, i64 }

; Function Attrs: nounwind uwtable
define internal i32 @text_decode_frame(ptr noundef %0, ptr noundef %1, ptr noundef %2, ptr noundef %3) #1 {
  %5 = alloca i32, align 4
  %6 = alloca ptr, align 8
  %7 = alloca ptr, align 8
  %8 = alloca ptr, align 8
  %9 = alloca ptr, align 8
  %10 = alloca i32, align 4
  %11 = alloca %struct.AVBPrint, align 8
  %12 = alloca ptr, align 8
  %13 = alloca ptr, align 8
  %14 = alloca i32, align 4
  store ptr %0, ptr %6, align 8, !tbaa !4
  store ptr %1, ptr %7, align 8, !tbaa !9
  store ptr %2, ptr %8, align 8, !tbaa !11
  store ptr %3, ptr %9, align 8, !tbaa !13
  call void @llvm.lifetime.start.p0(i64 4, ptr %10) #4
  store i32 0, ptr %10, align 4, !tbaa !15
  call void @llvm.lifetime.start.p0(i64 1024, ptr %11) #4
  call void @llvm.lifetime.start.p0(i64 8, ptr %12) #4
  %15 = load ptr, ptr %9, align 8, !tbaa !13
  %16 = getelementptr inbounds nuw %struct.AVPacket, ptr %15, i32 0, i32 3
  %17 = load ptr, ptr %16, align 8, !tbaa !17
  store ptr %17, ptr %12, align 8, !tbaa !24
  call void @llvm.lifetime.start.p0(i64 8, ptr %13) #4
  %18 = load ptr, ptr %6, align 8, !tbaa !4
  %19 = getelementptr inbounds nuw %struct.AVCodecContext, ptr %18, i32 0, i32 6
  %20 = load ptr, ptr %19, align 8, !tbaa !25
  store ptr %20, ptr %13, align 8, !tbaa !38
  call void @av_bprint_init(ptr noundef %11, i32 noundef 0, i32 noundef -1)
  %21 = load ptr, ptr %12, align 8, !tbaa !24
  %22 = icmp ne ptr %21, null
  br i1 %22, label %23, label %52

23:                                               ; preds = %4
  %24 = load ptr, ptr %9, align 8, !tbaa !13
  %25 = getelementptr inbounds nuw %struct.AVPacket, ptr %24, i32 0, i32 4
  %26 = load i32, ptr %25, align 8, !tbaa !39
  %27 = icmp sgt i32 %26, 0
  br i1 %27, label %28, label %52

28:                                               ; preds = %23
  %29 = load ptr, ptr %12, align 8, !tbaa !24
  %30 = load i8, ptr %29, align 1, !tbaa !40
  %31 = sext i8 %30 to i32
  %32 = icmp ne i32 %31, 0
  br i1 %32, label %33, label %52

33:                                               ; preds = %28
  %34 = load ptr, ptr %12, align 8, !tbaa !24
  %35 = load ptr, ptr %9, align 8, !tbaa !13
  %36 = getelementptr inbounds nuw %struct.AVPacket, ptr %35, i32 0, i32 4
  %37 = load i32, ptr %36, align 8, !tbaa !39
  %38 = load ptr, ptr %13, align 8, !tbaa !38
  %39 = getelementptr inbounds nuw %struct.TextContext, ptr %38, i32 0, i32 1
  %40 = load ptr, ptr %39, align 8, !tbaa !41
  %41 = load ptr, ptr %13, align 8, !tbaa !38
  %42 = getelementptr inbounds nuw %struct.TextContext, ptr %41, i32 0, i32 2
  %43 = load i32, ptr %42, align 8, !tbaa !43
  call void @ff_ass_bprint_text_event(ptr noundef %11, ptr noundef %34, i32 noundef %37, ptr noundef %40, i32 noundef %43)
  %44 = load ptr, ptr %7, align 8, !tbaa !9
  %45 = getelementptr inbounds nuw %struct.AVBPrint, ptr %11, i32 0, i32 0
  %46 = load ptr, ptr %45, align 8, !tbaa !44
  %47 = load ptr, ptr %13, align 8, !tbaa !38
  %48 = getelementptr inbounds nuw %struct.TextContext, ptr %47, i32 0, i32 3
  %49 = load i32, ptr %48, align 4, !tbaa !46
  %50 = add nsw i32 %49, 1
  store i32 %50, ptr %48, align 4, !tbaa !46
  %51 = call i32 @ff_ass_add_rect(ptr noundef %44, ptr noundef %46, i32 noundef %49, i32 noundef 0, ptr noundef null, ptr noundef null)
  store i32 %51, ptr %10, align 4, !tbaa !15
  br label %52

52:                                               ; preds = %33, %28, %23, %4
  %53 = call i32 @av_bprint_finalize(ptr noundef %11, ptr noundef null)
  %54 = load i32, ptr %10, align 4, !tbaa !15
  %55 = icmp slt i32 %54, 0
  br i1 %55, label %56, label %58

56:                                               ; preds = %52
  %57 = load i32, ptr %10, align 4, !tbaa !15
  store i32 %57, ptr %5, align 4
  store i32 1, ptr %14, align 4
  br label %68

58:                                               ; preds = %52
  %59 = load ptr, ptr %7, align 8, !tbaa !9
  %60 = getelementptr inbounds nuw %struct.AVSubtitle, ptr %59, i32 0, i32 3
  %61 = load i32, ptr %60, align 4, !tbaa !47
  %62 = icmp ugt i32 %61, 0
  %63 = zext i1 %62 to i32
  %64 = load ptr, ptr %8, align 8, !tbaa !11
  store i32 %63, ptr %64, align 4, !tbaa !15
  %65 = load ptr, ptr %9, align 8, !tbaa !13
  %66 = getelementptr inbounds nuw %struct.AVPacket, ptr %65, i32 0, i32 4
  %67 = load i32, ptr %66, align 8, !tbaa !39
  store i32 %67, ptr %5, align 4
  store i32 1, ptr %14, align 4
  br label %68

68:                                               ; preds = %58, %56
  call void @llvm.lifetime.end.p0(i64 8, ptr %13) #4
  call void @llvm.lifetime.end.p0(i64 8, ptr %12) #4
  call void @llvm.lifetime.end.p0(i64 1024, ptr %11) #4
  call void @llvm.lifetime.end.p0(i64 4, ptr %10) #4
  %69 = load i32, ptr %5, align 4
  ret i32 %69
}