; Function Attrs: nounwind uwtable
define internal i32 @text_decode_frame(ptr noundef readonly captures(none) %0, ptr noundef %1, ptr noundef writeonly captures(none) %2, ptr noundef readonly captures(none) %3) #1 {
  %5 = alloca %struct.AVBPrint, align 8
  call void @llvm.lifetime.start.p0(i64 1024, ptr nonnull %5) #5
  %6 = getelementptr inbounds nuw i8, ptr %3, i64 24
  %7 = load ptr, ptr %6, align 8, !tbaa !4
  %8 = getelementptr inbounds nuw i8, ptr %0, i64 32
  %9 = load ptr, ptr %8, align 8, !tbaa !15
  call void @av_bprint_init(ptr noundef nonnull %5, i32 noundef 0, i32 noundef -1) #5
  %.not = icmp eq ptr %7, null
  br i1 %.not, label %.thread, label %10

10:                                               ; preds = %4
  %11 = getelementptr inbounds nuw i8, ptr %3, i64 32
  %12 = load i32, ptr %11, align 8, !tbaa !29
  %13 = icmp sgt i32 %12, 0
  br i1 %13, label %14, label %.thread

14:                                               ; preds = %10
  %15 = load i8, ptr %7, align 1, !tbaa !30
  %.not19 = icmp eq i8 %15, 0
  br i1 %.not19, label %.thread, label %17

.thread:                                          ; preds = %14, %10, %4
  %16 = call i32 @av_bprint_finalize(ptr noundef nonnull %5, ptr noundef null) #5
  br label %29

17:                                               ; preds = %14
  %18 = getelementptr inbounds nuw i8, ptr %9, i64 8
  %19 = load ptr, ptr %18, align 8, !tbaa !31
  %20 = getelementptr inbounds nuw i8, ptr %9, i64 16
  %21 = load i32, ptr %20, align 8, !tbaa !33
  call void @ff_ass_bprint_text_event(ptr noundef nonnull %5, ptr noundef nonnull %7, i32 noundef %12, ptr noundef %19, i32 noundef %21) #5
  %22 = load ptr, ptr %5, align 8, !tbaa !34
  %23 = getelementptr inbounds nuw i8, ptr %9, i64 20
  %24 = load i32, ptr %23, align 4, !tbaa !36
  %25 = add nsw i32 %24, 1
  store i32 %25, ptr %23, align 4, !tbaa !36
  %26 = call i32 @ff_ass_add_rect(ptr noundef %1, ptr noundef %22, i32 noundef %24, i32 noundef 0, ptr noundef null, ptr noundef null) #5
  %27 = call i32 @av_bprint_finalize(ptr noundef nonnull %5, ptr noundef null) #5
  %28 = icmp slt i32 %26, 0
  br i1 %28, label %36, label %29

29:                                               ; preds = %.thread, %17
  %30 = getelementptr inbounds nuw i8, ptr %1, i64 12
  %31 = load i32, ptr %30, align 4, !tbaa !37
  %32 = icmp ne i32 %31, 0
  %33 = zext i1 %32 to i32
  store i32 %33, ptr %2, align 4, !tbaa !41
  %34 = getelementptr inbounds nuw i8, ptr %3, i64 32
  %35 = load i32, ptr %34, align 8, !tbaa !29
  br label %36

36:                                               ; preds = %17, %29
  %.0 = phi i32 [ %35, %29 ], [ %26, %17 ]
  call void @llvm.lifetime.end.p0(i64 1024, ptr nonnull %5) #5
  ret i32 %.0
}